; Function Attrs: mustprogress uwtable
define { i64, i32 } @_ZN3net16HpackInputStream18InitializePeekBitsEv(ptr noundef nonnull readonly align 8 captures(none) dereferenceable(33) %0) local_unnamed_addr #3 align 2 personality ptr @__gxx_personality_v0 {
  %2 = alloca %"class.logging::LogMessage", align 8
  %3 = getelementptr inbounds nuw i8, ptr %0, i64 16
  %4 = load i64, ptr %3, align 8, !tbaa !16
  %5 = icmp eq i64 %4, 0
  br i1 %5, label %6, label %34

6:                                                ; preds = %1
  %7 = getelementptr inbounds nuw i8, ptr %0, i64 8
  %8 = load i64, ptr %7, align 8, !tbaa !10
  switch i64 %8, label %9 [
    i64 3, label %._crit_edge
    i64 2, label %._crit_edge24
    i64 1, label %._crit_edge26
    i64 0, label %.critedge9
  ]

._crit_edge26:                                    ; preds = %6
  %.pre27 = load ptr, ptr %0, align 8, !tbaa !17
  br label %28

._crit_edge24:                                    ; preds = %6
  %.pre25 = load ptr, ptr %0, align 8, !tbaa !17
  br label %21

._crit_edge:                                      ; preds = %6
  %.pre = load ptr, ptr %0, align 8, !tbaa !17
  br label %14

9:                                                ; preds = %6
  %10 = load ptr, ptr %0, align 8, !tbaa !17
  %11 = getelementptr inbounds nuw i8, ptr %10, i64 3
  %12 = load i8, ptr %11, align 1, !tbaa !18
  %13 = zext i8 %12 to i32
  br label %14

14:                                               ; preds = %._crit_edge, %9
  %15 = phi ptr [ %10, %9 ], [ %.pre, %._crit_edge ]
  %.020 = phi i32 [ %13, %9 ], [ 0, %._crit_edge ]
  %.0 = phi i64 [ 32, %9 ], [ 24, %._crit_edge ]
  %16 = getelementptr inbounds nuw i8, ptr %15, i64 2
  %17 = load i8, ptr %16, align 1, !tbaa !18
  %18 = zext i8 %17 to i32
  %19 = shl nuw nsw i32 %18, 8
  %20 = or disjoint i32 %19, %.020
  br label %21

21:                                               ; preds = %._crit_edge24, %14
  %22 = phi ptr [ %15, %14 ], [ %.pre25, %._crit_edge24 ]
  %.121 = phi i32 [ %20, %14 ], [ 0, %._crit_edge24 ]
  %.1 = phi i64 [ %.0, %14 ], [ 16, %._crit_edge24 ]
  %23 = getelementptr inbounds nuw i8, ptr %22, i64 1
  %24 = load i8, ptr %23, align 1, !tbaa !18
  %25 = zext i8 %24 to i32
  %26 = shl nuw nsw i32 %25, 16
  %27 = or i32 %26, %.121
  br label %28

28:                                               ; preds = %._crit_edge26, %21
  %29 = phi ptr [ %22, %21 ], [ %.pre27, %._crit_edge26 ]
  %.222 = phi i32 [ %27, %21 ], [ 0, %._crit_edge26 ]
  %.2 = phi i64 [ %.1, %21 ], [ 8, %._crit_edge26 ]
  %30 = load i8, ptr %29, align 1, !tbaa !18
  %31 = zext i8 %30 to i32
  %32 = shl nuw i32 %31, 24
  %33 = or i32 %32, %.222
  br label %.critedge9

34:                                               ; preds = %1
  %35 = tail call noundef zeroext i1 @_ZN7logging22ShouldCreateLogMessageEi(i32 noundef 2)
  br i1 %35, label %36, label %.critedge9

36:                                               ; preds = %34
  call void @llvm.lifetime.start.p0(i64 408, ptr nonnull %2) #18
  call void @_ZN7logging10LogMessageC1EPKcii(ptr noundef nonnull align 8 dereferenceable(404) %2, ptr noundef nonnull @.str, i32 noundef 217, i32 noundef 2)
  %37 = getelementptr inbounds nuw i8, ptr %2, i64 8
  %38 = invoke noundef nonnull align 8 dereferenceable(8) ptr @_ZSt16__ostream_insertIcSt11char_traitsIcEERSt13basic_ostreamIT_T0_ES6_PKS3_l(ptr noundef nonnull align 8 dereferenceable(8) %37, ptr noundef nonnull @.str.2, i64 noundef 53)
          to label %_ZStlsISt11char_traitsIcEERSt13basic_ostreamIcT_ES5_PKc.exit unwind label %41

_ZStlsISt11char_traitsIcEERSt13basic_ostreamIcT_ES5_PKc.exit: ; preds = %36
  %39 = load i64, ptr %3, align 8, !tbaa !16
  %40 = invoke noundef nonnull align 8 dereferenceable(8) ptr @_ZNSo9_M_insertImEERSoT_(ptr noundef nonnull align 8 dereferenceable(8) %37, i64 noundef %39)
          to label %.critedge unwind label %41

.critedge:                                        ; preds = %_ZStlsISt11char_traitsIcEERSt13basic_ostreamIcT_ES5_PKc.exit
  call void @_ZN7logging10LogMessageD1Ev(ptr noundef nonnull align 8 dereferenceable(404) %2) #18
  call void @llvm.lifetime.end.p0(i64 408, ptr nonnull %2) #18
  br label %.critedge9

41:                                               ; preds = %_ZStlsISt11char_traitsIcEERSt13basic_ostreamIcT_ES5_PKc.exit, %36
  %42 = landingpad { ptr, i32 }
          cleanup
  call void @_ZN7logging10LogMessageD1Ev(ptr noundef nonnull align 8 dereferenceable(404) %2) #18
  call void @llvm.lifetime.end.p0(i64 408, ptr nonnull %2) #18
  resume { ptr, i32 } %42

.critedge9:                                       ; preds = %.critedge, %34, %6, %28
  %.323 = phi i32 [ %33, %28 ], [ 0, %6 ], [ 0, %34 ], [ 0, %.critedge ]
  %.3 = phi i64 [ %.2, %28 ], [ %8, %6 ], [ 0, %34 ], [ 0, %.critedge ]
  %.fca.0.insert.i = insertvalue { i64, i32 } poison, i64 %.3, 0
  %.fca.1.insert.i = insertvalue { i64, i32 } %.fca.0.insert.i, i32 %.323, 1
  ret { i64, i32 } %.fca.1.insert.i
}